; Function Attrs: mustprogress nounwind uwtable
define hidden void @_ZN5osgeo4proj9operation17InverseConversionD2Ev(ptr noundef nonnull align 8 dereferenceable(49) %0, ptr noundef %1) unnamed_addr #3 align 2 personality ptr @__gxx_personality_v0 {
  %3 = getelementptr inbounds nuw i8, ptr %0, i64 24
  %4 = getelementptr inbounds nuw i8, ptr %1, i64 104
  tail call void @_ZN5osgeo4proj9operation26InverseCoordinateOperationD2Ev(ptr noundef nonnull align 8 dereferenceable(25) %3, ptr noundef nonnull %4) #32
  %5 = getelementptr inbounds nuw i8, ptr %1, i64 8
  %6 = load ptr, ptr %5, align 8
  store ptr %6, ptr %0, align 8, !tbaa !3
  %7 = getelementptr inbounds nuw i8, ptr %1, i64 64
  %8 = load ptr, ptr %7, align 8
  %9 = getelementptr i8, ptr %6, i64 -24
  %10 = load i64, ptr %9, align 8
  %11 = getelementptr inbounds i8, ptr %0, i64 %10
  store ptr %8, ptr %11, align 8, !tbaa !3
  %12 = getelementptr inbounds nuw i8, ptr %1, i64 72
  %13 = load ptr, ptr %12, align 8
  %14 = load ptr, ptr %0, align 8, !tbaa !3
  %15 = getelementptr i8, ptr %14, i64 -24
  %16 = load i64, ptr %15, align 8
  %17 = getelementptr i8, ptr %0, i64 %16
  %18 = getelementptr i8, ptr %17, i64 16
  store ptr %13, ptr %18, align 8, !tbaa !3
  %19 = getelementptr inbounds nuw i8, ptr %1, i64 80
  %20 = load ptr, ptr %19, align 8
  %21 = load ptr, ptr %0, align 8, !tbaa !3
  %22 = getelementptr i8, ptr %21, i64 -24
  %23 = load i64, ptr %22, align 8
  %24 = getelementptr i8, ptr %0, i64 %23
  %25 = getelementptr i8, ptr %24, i64 24
  store ptr %20, ptr %25, align 8, !tbaa !3
  %26 = getelementptr inbounds nuw i8, ptr %1, i64 88
  %27 = load ptr, ptr %26, align 8
  %28 = load ptr, ptr %0, align 8, !tbaa !3
  %29 = getelementptr i8, ptr %28, i64 -24
  %30 = load i64, ptr %29, align 8
  %31 = getelementptr i8, ptr %0, i64 %30
  %32 = getelementptr i8, ptr %31, i64 48
  store ptr %27, ptr %32, align 8, !tbaa !3
  %33 = getelementptr inbounds nuw i8, ptr %1, i64 96
  %34 = load ptr, ptr %33, align 8
  %35 = load ptr, ptr %0, align 8, !tbaa !3
  %36 = getelementptr i8, ptr %35, i64 -24
  %37 = load i64, ptr %36, align 8
  %38 = getelementptr i8, ptr %0, i64 %37
  %39 = getelementptr i8, ptr %38, i64 56
  store ptr %34, ptr %39, align 8, !tbaa !3
  %40 = getelementptr inbounds nuw i8, ptr %0, i64 16
  %41 = load ptr, ptr %40, align 8, !tbaa !11
  %.not.i.i = icmp eq ptr %41, null
  br i1 %.not.i.i, label %_ZN5osgeo4proj9operation10ConversionD2Ev.exit, label %_ZNKSt14default_deleteIN5osgeo4proj9operation10Conversion7PrivateEEclEPS4_.exit.i.i

_ZNKSt14default_deleteIN5osgeo4proj9operation10Conversion7PrivateEEclEPS4_.exit.i.i: ; preds = %2
  tail call void @_ZdlPvm(ptr noundef nonnull %41, i64 noundef 1) #31
  br label %_ZN5osgeo4proj9operation10ConversionD2Ev.exit

_ZN5osgeo4proj9operation10ConversionD2Ev.exit:    ; preds = %2, %_ZNKSt14default_deleteIN5osgeo4proj9operation10Conversion7PrivateEEclEPS4_.exit.i.i
  store ptr null, ptr %40, align 8, !tbaa !11
  %42 = getelementptr inbounds nuw i8, ptr %1, i64 16
  tail call void @_ZN5osgeo4proj9operation15SingleOperationD2Ev(ptr noundef nonnull align 8 dereferenceable(24) %0, ptr noundef nonnull %42) #32
  ret void
}